target datalayout = "e-m:e-p270:32:32-p271:32:32-p272:64:64-i64:64-i128:128-f80:128-n8:16:32:64-S128"
target triple = "x86_64-pc-linux-gnu"

%struct._lv_textarea_t = type { %struct._lv_obj_t, ptr, ptr, ptr, ptr, ptr, i32, i32, %struct.anon, i32, i32, i8 }
%struct._lv_obj_t = type { ptr, ptr, ptr, ptr, ptr, %struct.lv_area_t, i32, i16, i16 }
%struct.lv_area_t = type { i32, i32, i32, i32 }
%struct.anon = type { i32, i32, %struct.lv_area_t, i32, i8 }

; Function Attrs: nounwind uwtable
define void @lv_textarea_clear_selection(ptr noundef %0) #0 {
  %2 = alloca ptr, align 8
  %3 = alloca ptr, align 8
  store ptr %0, ptr %2, align 8, !tbaa !8
  br label %4

4:                                                ; preds = %1
  %5 = load ptr, ptr %2, align 8, !tbaa !8
  %6 = icmp ne ptr %5, null
  br i1 %6, label %11, label %7

7:                                                ; preds = %4
  br label %8

8:                                                ; preds = %7
  br label %9

9:                                                ; preds = %8
  br label %10

10:                                               ; preds = %9, %10
  br label %10

11:                                               ; preds = %4
  br label %12

12:                                               ; preds = %11
  call void @llvm.lifetime.start.p0(i64 8, ptr %3) #6
  %13 = load ptr, ptr %2, align 8, !tbaa !8
  store ptr %13, ptr %3, align 8, !tbaa !10
  %14 = load ptr, ptr %3, align 8, !tbaa !10
  %15 = getelementptr inbounds nuw %struct._lv_textarea_t, ptr %14, i32 0, i32 1
  %16 = load ptr, ptr %15, align 8, !tbaa !28
  %17 = call i32 @lv_label_get_text_selection_start(ptr noundef %16)
  %18 = icmp ne i32 %17, 65535
  br i1 %18, label %25, label %19

19:                                               ; preds = %12
  %20 = load ptr, ptr %3, align 8, !tbaa !10
  %21 = getelementptr inbounds nuw %struct._lv_textarea_t, ptr %20, i32 0, i32 1
  %22 = load ptr, ptr %21, align 8, !tbaa !28
  %23 = call i32 @lv_label_get_text_selection_end(ptr noundef %22)
  %24 = icmp ne i32 %23, 65535
  br i1 %24, label %25, label %32

25:                                               ; preds = %19, %12
  %26 = load ptr, ptr %3, align 8, !tbaa !10
  %27 = getelementptr inbounds nuw %struct._lv_textarea_t, ptr %26, i32 0, i32 1
  %28 = load ptr, ptr %27, align 8, !tbaa !28
  call void @lv_label_set_text_selection_start(ptr noundef %28, i32 noundef 65535)
  %29 = load ptr, ptr %3, align 8, !tbaa !10
  %30 = getelementptr inbounds nuw %struct._lv_textarea_t, ptr %29, i32 0, i32 1
  %31 = load ptr, ptr %30, align 8, !tbaa !28
  call void @lv_label_set_text_selection_end(ptr noundef %31, i32 noundef 65535)
  br label %32

32:                                               ; preds = %25, %19
  call void @llvm.lifetime.end.p0(i64 8, ptr %3) #6
  ret void
}

; Function Attrs: nounwind uwtable
define void @lv_textarea_set_password_mode(ptr noundef %0, i1 noundef zeroext %1) #0 {
  %3 = alloca ptr, align 8
  %4 = alloca i8, align 1
  %5 = alloca ptr, align 8
  %6 = alloca i32, align 4
  %7 = alloca ptr, align 8
  store ptr %0, ptr %3, align 8, !tbaa !8
  %8 = zext i1 %1 to i8
  store i8 %8, ptr %4, align 1, !tbaa !56
  br label %9

9:                                                ; preds = %2
  %10 = load ptr, ptr %3, align 8, !tbaa !8
  %11 = icmp ne ptr %10, null
  br i1 %11, label %16, label %12

12:                                               ; preds = %9
  br label %13

13:                                               ; preds = %12
  br label %14

14:                                               ; preds = %13
  br label %15

15:                                               ; preds = %14, %15
  br label %15

16:                                               ; preds = %9
  br label %17

17:                                               ; preds = %16
  call void @llvm.lifetime.start.p0(i64 8, ptr %5) #6
  %18 = load ptr, ptr %3, align 8, !tbaa !8
  store ptr %18, ptr %5, align 8, !tbaa !10
  %19 = load ptr, ptr %5, align 8, !tbaa !10
  %20 = getelementptr inbounds nuw %struct._lv_textarea_t, ptr %19, i32 0, i32 11
  %21 = load i8, ptr %20, align 8
  %22 = lshr i8 %21, 2
  %23 = and i8 %22, 1
  %24 = zext i8 %23 to i32
  %25 = load i8, ptr %4, align 1, !tbaa !56, !range !58, !noundef !59
  %26 = trunc i8 %25 to i1
  %27 = zext i1 %26 to i32
  %28 = icmp eq i32 %24, %27
  br i1 %28, label %29, label %30

29:                                               ; preds = %17
  store i32 1, ptr %6, align 4
  br label %96

30:                                               ; preds = %17
  %31 = load i8, ptr %4, align 1, !tbaa !56, !range !58, !noundef !59
  %32 = trunc i8 %31 to i1
  %33 = select i1 %32, i32 1, i32 0
  %34 = trunc i32 %33 to i8
  %35 = load ptr, ptr %5, align 8, !tbaa !10
  %36 = getelementptr inbounds nuw %struct._lv_textarea_t, ptr %35, i32 0, i32 11
  %37 = load i8, ptr %36, align 8
  %38 = and i8 %34, 1
  %39 = shl i8 %38, 2
  %40 = and i8 %37, -5
  %41 = or i8 %40, %39
  store i8 %41, ptr %36, align 8
  %42 = load i8, ptr %4, align 1, !tbaa !56, !range !58, !noundef !59
  %43 = trunc i8 %42 to i1
  br i1 %43, label %44, label %81

44:                                               ; preds = %30
  call void @llvm.lifetime.start.p0(i64 8, ptr %7) #6
  %45 = load ptr, ptr %5, align 8, !tbaa !10
  %46 = getelementptr inbounds nuw %struct._lv_textarea_t, ptr %45, i32 0, i32 1
  %47 = load ptr, ptr %46, align 8, !tbaa !28
  %48 = call ptr @lv_label_get_text(ptr noundef %47)
  store ptr %48, ptr %7, align 8, !tbaa !33
  %49 = load ptr, ptr %5, align 8, !tbaa !10
  %50 = getelementptr inbounds nuw %struct._lv_textarea_t, ptr %49, i32 0, i32 3
  %51 = load ptr, ptr %50, align 8, !tbaa !12
  call void @lv_free(ptr noundef %51)
  %52 = load ptr, ptr %7, align 8, !tbaa !33
  %53 = call ptr @lv_strdup(ptr noundef %52)
  %54 = load ptr, ptr %5, align 8, !tbaa !10
  %55 = getelementptr inbounds nuw %struct._lv_textarea_t, ptr %54, i32 0, i32 3
  store ptr %53, ptr %55, align 8, !tbaa !12
  br label %56

56:                                               ; preds = %44
  %57 = load ptr, ptr %5, align 8, !tbaa !10
  %58 = getelementptr inbounds nuw %struct._lv_textarea_t, ptr %57, i32 0, i32 3
  %59 = load ptr, ptr %58, align 8, !tbaa !12
  %60 = icmp ne ptr %59, null
  br i1 %60, label %67, label %61

61:                                               ; preds = %56
  br label %62

62:                                               ; preds = %61
  br label %63

63:                                               ; preds = %62
  br label %64

64:                                               ; preds = %63
  br label %65

65:                                               ; preds = %66, %64
  br label %66

66:                                               ; preds = %65
  br label %65

67:                                               ; preds = %56
  br label %68

68:                                               ; preds = %67
  br label %69

69:                                               ; preds = %68
  %70 = load ptr, ptr %5, align 8, !tbaa !10
  %71 = getelementptr inbounds nuw %struct._lv_textarea_t, ptr %70, i32 0, i32 3
  %72 = load ptr, ptr %71, align 8, !tbaa !12
  %73 = icmp eq ptr %72, null
  br i1 %73, label %74, label %75

74:                                               ; preds = %69
  store i32 1, ptr %6, align 4
  br label %78

75:                                               ; preds = %69
  %76 = load ptr, ptr %3, align 8, !tbaa !8
  call void @pwd_char_hider(ptr noundef %76)
  %77 = load ptr, ptr %3, align 8, !tbaa !8
  call void @lv_textarea_clear_selection(ptr noundef %77)
  store i32 0, ptr %6, align 4
  br label %78

78:                                               ; preds = %75, %74
  call void @llvm.lifetime.end.p0(i64 8, ptr %7) #6
  %79 = load i32, ptr %6, align 4
  switch i32 %79, label %96 [
    i32 0, label %80
  ]

80:                                               ; preds = %78
  br label %94

81:                                               ; preds = %30
  %82 = load ptr, ptr %3, align 8, !tbaa !8
  call void @lv_textarea_clear_selection(ptr noundef %82)
  %83 = load ptr, ptr %5, align 8, !tbaa !10
  %84 = getelementptr inbounds nuw %struct._lv_textarea_t, ptr %83, i32 0, i32 1
  %85 = load ptr, ptr %84, align 8, !tbaa !28
  %86 = load ptr, ptr %5, align 8, !tbaa !10
  %87 = getelementptr inbounds nuw %struct._lv_textarea_t, ptr %86, i32 0, i32 3
  %88 = load ptr, ptr %87, align 8, !tbaa !12
  call void @lv_label_set_text(ptr noundef %85, ptr noundef %88)
  %89 = load ptr, ptr %5, align 8, !tbaa !10
  %90 = getelementptr inbounds nuw %struct._lv_textarea_t, ptr %89, i32 0, i32 3
  %91 = load ptr, ptr %90, align 8, !tbaa !12
  call void @lv_free(ptr noundef %91)
  %92 = load ptr, ptr %5, align 8, !tbaa !10
  %93 = getelementptr inbounds nuw %struct._lv_textarea_t, ptr %92, i32 0, i32 3
  store ptr null, ptr %93, align 8, !tbaa !12
  br label %94

94:                                               ; preds = %81, %80
  %95 = load ptr, ptr %3, align 8, !tbaa !8
  call void @refr_cursor_area(ptr noundef %95)
  store i32 0, ptr %6, align 4
  br label %96

96:                                               ; preds = %94, %78, %29
  call void @llvm.lifetime.end.p0(i64 8, ptr %5) #6
  %97 = load i32, ptr %6, align 4
  switch i32 %97, label %99 [
    i32 0, label %98
    i32 1, label %98
  ]

98:                                               ; preds = %96, %96
  ret void

99:                                               ; preds = %96
  unreachable
}