; Function Attrs: nounwind uwtable
define void @lv_textarea_set_password_mode(ptr noundef %0, i1 noundef zeroext %1) local_unnamed_addr #0 {
  %.not = icmp eq ptr %0, null
  br i1 %.not, label %.preheader, label %3

.preheader:                                       ; preds = %2, %.preheader
  br label %.preheader

3:                                                ; preds = %2
  %4 = getelementptr inbounds nuw i8, ptr %0, i64 152
  %5 = load i8, ptr %4, align 8
  %6 = and i8 %5, 4
  %7 = icmp eq i8 %6, 0
  %8 = xor i1 %1, %7
  br i1 %8, label %41, label %9

9:                                                ; preds = %3
  %10 = select i1 %1, i8 4, i8 0
  %11 = and i8 %5, -5
  %12 = or disjoint i8 %11, %10
  store i8 %12, ptr %4, align 8
  %13 = getelementptr inbounds nuw i8, ptr %0, i64 64
  %14 = load ptr, ptr %13, align 8, !tbaa !22
  br i1 %1, label %15, label %29

15:                                               ; preds = %9
  %16 = tail call ptr @lv_label_get_text(ptr noundef %14) #10
  %17 = getelementptr inbounds nuw i8, ptr %0, i64 80
  %18 = load ptr, ptr %17, align 8, !tbaa !23
  tail call void @lv_free(ptr noundef %18) #10
  %19 = tail call ptr @lv_strdup(ptr noundef %16) #10
  store ptr %19, ptr %17, align 8, !tbaa !23
  %.not22 = icmp eq ptr %19, null
  br i1 %.not22, label %.preheader28, label %20

.preheader28:                                     ; preds = %15, %.preheader28
  br label %.preheader28

20:                                               ; preds = %15
  tail call fastcc void @pwd_char_hider(ptr noundef nonnull %0)
  %21 = load ptr, ptr %13, align 8, !tbaa !22
  %22 = tail call i32 @lv_label_get_text_selection_start(ptr noundef %21) #10
  %.not6.i = icmp eq i32 %22, 65535
  br i1 %.not6.i, label %23, label %26

23:                                               ; preds = %20
  %24 = load ptr, ptr %13, align 8, !tbaa !22
  %25 = tail call i32 @lv_label_get_text_selection_end(ptr noundef %24) #10
  %.not7.i = icmp eq i32 %25, 65535
  br i1 %.not7.i, label %lv_textarea_clear_selection.exit, label %26

26:                                               ; preds = %23, %20
  %27 = load ptr, ptr %13, align 8, !tbaa !22
  tail call void @lv_label_set_text_selection_start(ptr noundef %27, i32 noundef 65535) #10
  %28 = load ptr, ptr %13, align 8, !tbaa !22
  tail call void @lv_label_set_text_selection_end(ptr noundef %28, i32 noundef 65535) #10
  br label %lv_textarea_clear_selection.exit

29:                                               ; preds = %9
  %30 = tail call i32 @lv_label_get_text_selection_start(ptr noundef %14) #10
  %.not6.i24 = icmp eq i32 %30, 65535
  br i1 %.not6.i24, label %31, label %34

31:                                               ; preds = %29
  %32 = load ptr, ptr %13, align 8, !tbaa !22
  %33 = tail call i32 @lv_label_get_text_selection_end(ptr noundef %32) #10
  %.not7.i25 = icmp eq i32 %33, 65535
  br i1 %.not7.i25, label %lv_textarea_clear_selection.exit27, label %34

34:                                               ; preds = %31, %29
  %35 = load ptr, ptr %13, align 8, !tbaa !22
  tail call void @lv_label_set_text_selection_start(ptr noundef %35, i32 noundef 65535) #10
  %36 = load ptr, ptr %13, align 8, !tbaa !22
  tail call void @lv_label_set_text_selection_end(ptr noundef %36, i32 noundef 65535) #10
  br label %lv_textarea_clear_selection.exit27

lv_textarea_clear_selection.exit27:               ; preds = %31, %34
  %37 = load ptr, ptr %13, align 8, !tbaa !22
  %38 = getelementptr inbounds nuw i8, ptr %0, i64 80
  %39 = load ptr, ptr %38, align 8, !tbaa !23
  tail call void @lv_label_set_text(ptr noundef %37, ptr noundef %39) #10
  %40 = load ptr, ptr %38, align 8, !tbaa !23
  tail call void @lv_free(ptr noundef %40) #10
  store ptr null, ptr %38, align 8, !tbaa !23
  br label %lv_textarea_clear_selection.exit

lv_textarea_clear_selection.exit:                 ; preds = %26, %23, %lv_textarea_clear_selection.exit27
  tail call fastcc void @refr_cursor_area(ptr noundef nonnull %0)
  br label %41

41:                                               ; preds = %3, %lv_textarea_clear_selection.exit
  ret void
}